target datalayout = "e-m:e-p270:32:32-p271:32:32-p272:64:64-i64:64-i128:128-f80:128-n8:16:32:64-S128"
target triple = "x86_64-pc-linux-gnu"

%struct.magic_set = type { [2 x ptr], %struct.cont, %struct.out, i32, i32, i32, i32, i32, ptr, i64, i32, %struct.anon, %union.VALUETYPE, i16, i16, i16, i16, i16, i16, i64, i64, i64 }
%struct.cont = type { i64, ptr }
%struct.out = type { ptr, i64, ptr }
%struct.anon = type { ptr, i64, i64, i64 }
%union.VALUETYPE = type { [2 x i64], [112 x i8] }
%struct.level_info = type { i32, i32, i32, i32 }

@.str.8 = private unnamed_addr constant [26 x i8] c"cannot allocate %zu bytes\00", align 1

; Function Attrs: nounwind uwtable
define hidden void @file_oomem(ptr noundef %0, i64 noundef %1) #0 {
  %3 = alloca ptr, align 8
  %4 = alloca i64, align 8
  store ptr %0, ptr %3, align 8
  store i64 %1, ptr %4, align 8
  %5 = load ptr, ptr %3, align 8
  %6 = call ptr @__errno_location() #12
  %7 = load i32, ptr %6, align 4
  %8 = load i64, ptr %4, align 8
  call void (ptr, i32, ptr, ...) @file_error(ptr noundef %5, i32 noundef %7, ptr noundef @.str.8, i64 noundef %8)
  ret void
}

; Function Attrs: nounwind uwtable
define hidden i32 @file_check_mem(ptr noundef %0, i32 noundef %1) #0 {
  %3 = alloca i32, align 4
  %4 = alloca ptr, align 8
  %5 = alloca i32, align 4
  %6 = alloca i64, align 8
  store ptr %0, ptr %4, align 8
  store i32 %1, ptr %5, align 4
  %7 = load i32, ptr %5, align 4
  %8 = zext i32 %7 to i64
  %9 = load ptr, ptr %4, align 8
  %10 = getelementptr inbounds %struct.magic_set, ptr %9, i32 0, i32 1
  %11 = getelementptr inbounds %struct.cont, ptr %10, i32 0, i32 0
  %12 = load i64, ptr %11, align 8
  %13 = icmp uge i64 %8, %12
  br i1 %13, label %14, label %277

14:                                               ; preds = %2
  %15 = load i32, ptr %5, align 4
  %16 = add i32 20, %15
  %17 = zext i32 %16 to i64
  %18 = load ptr, ptr %4, align 8
  %19 = getelementptr inbounds %struct.magic_set, ptr %18, i32 0, i32 1
  %20 = getelementptr inbounds %struct.cont, ptr %19, i32 0, i32 0
  store i64 %17, ptr %20, align 8
  %21 = mul i64 %17, 16
  store i64 %21, ptr %6, align 8
  %22 = load ptr, ptr %4, align 8
  %23 = getelementptr inbounds %struct.magic_set, ptr %22, i32 0, i32 1
  %24 = getelementptr inbounds %struct.cont, ptr %23, i32 0, i32 1
  %25 = load ptr, ptr %24, align 8
  %26 = icmp eq ptr %25, null
  br i1 %26, label %27, label %256

27:                                               ; preds = %14
  %28 = load i64, ptr %6, align 8
  %29 = call i1 @llvm.is.constant.i64(i64 %28)
  br i1 %29, label %30, label %251

30:                                               ; preds = %27
  %31 = load i64, ptr %6, align 8
  %32 = icmp ule i64 %31, 8
  br i1 %32, label %33, label %35

33:                                               ; preds = %30
  %34 = call noalias ptr @_emalloc_8()
  br label %249

35:                                               ; preds = %30
  %36 = load i64, ptr %6, align 8
  %37 = icmp ule i64 %36, 16
  br i1 %37, label %38, label %40

38:                                               ; preds = %35
  %39 = call noalias ptr @_emalloc_16()
  br label %247

40:                                               ; preds = %35
  %41 = load i64, ptr %6, align 8
  %42 = icmp ule i64 %41, 24
  br i1 %42, label %43, label %45

43:                                               ; preds = %40
  %44 = call noalias ptr @_emalloc_24()
  br label %245

45:                                               ; preds = %40
  %46 = load i64, ptr %6, align 8
  %47 = icmp ule i64 %46, 32
  br i1 %47, label %48, label %50

48:                                               ; preds = %45
  %49 = call noalias ptr @_emalloc_32()
  br label %243

50:                                               ; preds = %45
  %51 = load i64, ptr %6, align 8
  %52 = icmp ule i64 %51, 40
  br i1 %52, label %53, label %55

53:                                               ; preds = %50
  %54 = call noalias ptr @_emalloc_40()
  br label %241

55:                                               ; preds = %50
  %56 = load i64, ptr %6, align 8
  %57 = icmp ule i64 %56, 48
  br i1 %57, label %58, label %60

58:                                               ; preds = %55
  %59 = call noalias ptr @_emalloc_48()
  br label %239

60:                                               ; preds = %55
  %61 = load i64, ptr %6, align 8
  %62 = icmp ule i64 %61, 56
  br i1 %62, label %63, label %65

63:                                               ; preds = %60
  %64 = call noalias ptr @_emalloc_56()
  br label %237

65:                                               ; preds = %60
  %66 = load i64, ptr %6, align 8
  %67 = icmp ule i64 %66, 64
  br i1 %67, label %68, label %70

68:                                               ; preds = %65
  %69 = call noalias ptr @_emalloc_64()
  br label %235

70:                                               ; preds = %65
  %71 = load i64, ptr %6, align 8
  %72 = icmp ule i64 %71, 80
  br i1 %72, label %73, label %75

73:                                               ; preds = %70
  %74 = call noalias ptr @_emalloc_80()
  br label %233

75:                                               ; preds = %70
  %76 = load i64, ptr %6, align 8
  %77 = icmp ule i64 %76, 96
  br i1 %77, label %78, label %80

78:                                               ; preds = %75
  %79 = call noalias ptr @_emalloc_96()
  br label %231

80:                                               ; preds = %75
  %81 = load i64, ptr %6, align 8
  %82 = icmp ule i64 %81, 112
  br i1 %82, label %83, label %85

83:                                               ; preds = %80
  %84 = call noalias ptr @_emalloc_112()
  br label %229

85:                                               ; preds = %80
  %86 = load i64, ptr %6, align 8
  %87 = icmp ule i64 %86, 128
  br i1 %87, label %88, label %90

88:                                               ; preds = %85
  %89 = call noalias ptr @_emalloc_128()
  br label %227

90:                                               ; preds = %85
  %91 = load i64, ptr %6, align 8
  %92 = icmp ule i64 %91, 160
  br i1 %92, label %93, label %95

93:                                               ; preds = %90
  %94 = call noalias ptr @_emalloc_160()
  br label %225

95:                                               ; preds = %90
  %96 = load i64, ptr %6, align 8
  %97 = icmp ule i64 %96, 192
  br i1 %97, label %98, label %100

98:                                               ; preds = %95
  %99 = call noalias ptr @_emalloc_192()
  br label %223

100:                                              ; preds = %95
  %101 = load i64, ptr %6, align 8
  %102 = icmp ule i64 %101, 224
  br i1 %102, label %103, label %105

103:                                              ; preds = %100
  %104 = call noalias ptr @_emalloc_224()
  br label %221

105:                                              ; preds = %100
  %106 = load i64, ptr %6, align 8
  %107 = icmp ule i64 %106, 256
  br i1 %107, label %108, label %110

108:                                              ; preds = %105
  %109 = call noalias ptr @_emalloc_256()
  br label %219

110:                                              ; preds = %105
  %111 = load i64, ptr %6, align 8
  %112 = icmp ule i64 %111, 320
  br i1 %112, label %113, label %115

113:                                              ; preds = %110
  %114 = call noalias ptr @_emalloc_320()
  br label %217

115:                                              ; preds = %110
  %116 = load i64, ptr %6, align 8
  %117 = icmp ule i64 %116, 384
  br i1 %117, label %118, label %120

118:                                              ; preds = %115
  %119 = call noalias ptr @_emalloc_384()
  br label %215

120:                                              ; preds = %115
  %121 = load i64, ptr %6, align 8
  %122 = icmp ule i64 %121, 448
  br i1 %122, label %123, label %125

123:                                              ; preds = %120
  %124 = call noalias ptr @_emalloc_448()
  br label %213

125:                                              ; preds = %120
  %126 = load i64, ptr %6, align 8
  %127 = icmp ule i64 %126, 512
  br i1 %127, label %128, label %130

128:                                              ; preds = %125
  %129 = call noalias ptr @_emalloc_512()
  br label %211

130:                                              ; preds = %125
  %131 = load i64, ptr %6, align 8
  %132 = icmp ule i64 %131, 640
  br i1 %132, label %133, label %135

133:                                              ; preds = %130
  %134 = call noalias ptr @_emalloc_640()
  br label %209

135:                                              ; preds = %130
  %136 = load i64, ptr %6, align 8
  %137 = icmp ule i64 %136, 768
  br i1 %137, label %138, label %140

138:                                              ; preds = %135
  %139 = call noalias ptr @_emalloc_768()
  br label %207

140:                                              ; preds = %135
  %141 = load i64, ptr %6, align 8
  %142 = icmp ule i64 %141, 896
  br i1 %142, label %143, label %145

143:                                              ; preds = %140
  %144 = call noalias ptr @_emalloc_896()
  br label %205

145:                                              ; preds = %140
  %146 = load i64, ptr %6, align 8
  %147 = icmp ule i64 %146, 1024
  br i1 %147, label %148, label %150

148:                                              ; preds = %145
  %149 = call noalias ptr @_emalloc_1024()
  br label %203

150:                                              ; preds = %145
  %151 = load i64, ptr %6, align 8
  %152 = icmp ule i64 %151, 1280
  br i1 %152, label %153, label %155

153:                                              ; preds = %150
  %154 = call noalias ptr @_emalloc_1280()
  br label %201

155:                                              ; preds = %150
  %156 = load i64, ptr %6, align 8
  %157 = icmp ule i64 %156, 1536
  br i1 %157, label %158, label %160

158:                                              ; preds = %155
  %159 = call noalias ptr @_emalloc_1536()
  br label %199

160:                                              ; preds = %155
  %161 = load i64, ptr %6, align 8
  %162 = icmp ule i64 %161, 1792
  br i1 %162, label %163, label %165

163:                                              ; preds = %160
  %164 = call noalias ptr @_emalloc_1792()
  br label %197

165:                                              ; preds = %160
  %166 = load i64, ptr %6, align 8
  %167 = icmp ule i64 %166, 2048
  br i1 %167, label %168, label %170

168:                                              ; preds = %165
  %169 = call noalias ptr @_emalloc_2048()
  br label %195

170:                                              ; preds = %165
  %171 = load i64, ptr %6, align 8
  %172 = icmp ule i64 %171, 2560
  br i1 %172, label %173, label %175

173:                                              ; preds = %170
  %174 = call noalias ptr @_emalloc_2560()
  br label %193

175:                                              ; preds = %170
  %176 = load i64, ptr %6, align 8
  %177 = icmp ule i64 %176, 3072
  br i1 %177, label %178, label %180

178:                                              ; preds = %175
  %179 = call noalias ptr @_emalloc_3072()
  br label %191

180:                                              ; preds = %175
  %181 = load i64, ptr %6, align 8
  %182 = icmp ule i64 %181, 2093056
  br i1 %182, label %183, label %186

183:                                              ; preds = %180
  %184 = load i64, ptr %6, align 8
  %185 = call noalias ptr @_emalloc_large(i64 noundef %184) #15
  br label %189

186:                                              ; preds = %180
  %187 = load i64, ptr %6, align 8
  %188 = call noalias ptr @_emalloc_huge(i64 noundef %187) #15
  br label %189

189:                                              ; preds = %186, %183
  %190 = phi ptr [ %185, %183 ], [ %188, %186 ]
  br label %191

191:                                              ; preds = %189, %178
  %192 = phi ptr [ %179, %178 ], [ %190, %189 ]
  br label %193

193:                                              ; preds = %191, %173
  %194 = phi ptr [ %174, %173 ], [ %192, %191 ]
  br label %195

195:                                              ; preds = %193, %168
  %196 = phi ptr [ %169, %168 ], [ %194, %193 ]
  br label %197

197:                                              ; preds = %195, %163
  %198 = phi ptr [ %164, %163 ], [ %196, %195 ]
  br label %199

199:                                              ; preds = %197, %158
  %200 = phi ptr [ %159, %158 ], [ %198, %197 ]
  br label %201

201:                                              ; preds = %199, %153
  %202 = phi ptr [ %154, %153 ], [ %200, %199 ]
  br label %203

203:                                              ; preds = %201, %148
  %204 = phi ptr [ %149, %148 ], [ %202, %201 ]
  br label %205

205:                                              ; preds = %203, %143
  %206 = phi ptr [ %144, %143 ], [ %204, %203 ]
  br label %207

207:                                              ; preds = %205, %138
  %208 = phi ptr [ %139, %138 ], [ %206, %205 ]
  br label %209

209:                                              ; preds = %207, %133
  %210 = phi ptr [ %134, %133 ], [ %208, %207 ]
  br label %211

211:                                              ; preds = %209, %128
  %212 = phi ptr [ %129, %128 ], [ %210, %209 ]
  br label %213

213:                                              ; preds = %211, %123
  %214 = phi ptr [ %124, %123 ], [ %212, %211 ]
  br label %215

215:                                              ; preds = %213, %118
  %216 = phi ptr [ %119, %118 ], [ %214, %213 ]
  br label %217

217:                                              ; preds = %215, %113
  %218 = phi ptr [ %114, %113 ], [ %216, %215 ]
  br label %219

219:                                              ; preds = %217, %108
  %220 = phi ptr [ %109, %108 ], [ %218, %217 ]
  br label %221

221:                                              ; preds = %219, %103
  %222 = phi ptr [ %104, %103 ], [ %220, %219 ]
  br label %223

223:                                              ; preds = %221, %98
  %224 = phi ptr [ %99, %98 ], [ %222, %221 ]
  br label %225

225:                                              ; preds = %223, %93
  %226 = phi ptr [ %94, %93 ], [ %224, %223 ]
  br label %227

227:                                              ; preds = %225, %88
  %228 = phi ptr [ %89, %88 ], [ %226, %225 ]
  br label %229

229:                                              ; preds = %227, %83
  %230 = phi ptr [ %84, %83 ], [ %228, %227 ]
  br label %231

231:                                              ; preds = %229, %78
  %232 = phi ptr [ %79, %78 ], [ %230, %229 ]
  br label %233

233:                                              ; preds = %231, %73
  %234 = phi ptr [ %74, %73 ], [ %232, %231 ]
  br label %235

235:                                              ; preds = %233, %68
  %236 = phi ptr [ %69, %68 ], [ %234, %233 ]
  br label %237

237:                                              ; preds = %235, %63
  %238 = phi ptr [ %64, %63 ], [ %236, %235 ]
  br label %239

239:                                              ; preds = %237, %58
  %240 = phi ptr [ %59, %58 ], [ %238, %237 ]
  br label %241

241:                                              ; preds = %239, %53
  %242 = phi ptr [ %54, %53 ], [ %240, %239 ]
  br label %243

243:                                              ; preds = %241, %48
  %244 = phi ptr [ %49, %48 ], [ %242, %241 ]
  br label %245

245:                                              ; preds = %243, %43
  %246 = phi ptr [ %44, %43 ], [ %244, %243 ]
  br label %247

247:                                              ; preds = %245, %38
  %248 = phi ptr [ %39, %38 ], [ %246, %245 ]
  br label %249

249:                                              ; preds = %247, %33
  %250 = phi ptr [ %34, %33 ], [ %248, %247 ]
  br label %254

251:                                              ; preds = %27
  %252 = load i64, ptr %6, align 8
  %253 = call noalias ptr @_emalloc(i64 noundef %252) #15
  br label %254

254:                                              ; preds = %251, %249
  %255 = phi ptr [ %250, %249 ], [ %253, %251 ]
  br label %263

256:                                              ; preds = %14
  %257 = load ptr, ptr %4, align 8
  %258 = getelementptr inbounds %struct.magic_set, ptr %257, i32 0, i32 1
  %259 = getelementptr inbounds %struct.cont, ptr %258, i32 0, i32 1
  %260 = load ptr, ptr %259, align 8
  %261 = load i64, ptr %6, align 8
  %262 = call ptr @_erealloc(ptr noundef %260, i64 noundef %261) #14
  br label %263

263:                                              ; preds = %256, %254
  %264 = phi ptr [ %255, %254 ], [ %262, %256 ]
  %265 = load ptr, ptr %4, align 8
  %266 = getelementptr inbounds %struct.magic_set, ptr %265, i32 0, i32 1
  %267 = getelementptr inbounds %struct.cont, ptr %266, i32 0, i32 1
  store ptr %264, ptr %267, align 8
  %268 = load ptr, ptr %4, align 8
  %269 = getelementptr inbounds %struct.magic_set, ptr %268, i32 0, i32 1
  %270 = getelementptr inbounds %struct.cont, ptr %269, i32 0, i32 1
  %271 = load ptr, ptr %270, align 8
  %272 = icmp eq ptr %271, null
  br i1 %272, label %273, label %276

273:                                              ; preds = %263
  %274 = load ptr, ptr %4, align 8
  %275 = load i64, ptr %6, align 8
  call void @file_oomem(ptr noundef %274, i64 noundef %275)
  store i32 -1, ptr %3, align 4
  br label %302

276:                                              ; preds = %263
  br label %277

277:                                              ; preds = %276, %2
  %278 = load ptr, ptr %4, align 8
  %279 = getelementptr inbounds %struct.magic_set, ptr %278, i32 0, i32 1
  %280 = getelementptr inbounds %struct.cont, ptr %279, i32 0, i32 1
  %281 = load ptr, ptr %280, align 8
  %282 = load i32, ptr %5, align 4
  %283 = zext i32 %282 to i64
  %284 = getelementptr inbounds %struct.level_info, ptr %281, i64 %283
  %285 = getelementptr inbounds %struct.level_info, ptr %284, i32 0, i32 1
  store i32 0, ptr %285, align 4
  %286 = load ptr, ptr %4, align 8
  %287 = getelementptr inbounds %struct.magic_set, ptr %286, i32 0, i32 1
  %288 = getelementptr inbounds %struct.cont, ptr %287, i32 0, i32 1
  %289 = load ptr, ptr %288, align 8
  %290 = load i32, ptr %5, align 4
  %291 = zext i32 %290 to i64
  %292 = getelementptr inbounds %struct.level_info, ptr %289, i64 %291
  %293 = getelementptr inbounds %struct.level_info, ptr %292, i32 0, i32 2
  store i32 0, ptr %293, align 4
  %294 = load ptr, ptr %4, align 8
  %295 = getelementptr inbounds %struct.magic_set, ptr %294, i32 0, i32 1
  %296 = getelementptr inbounds %struct.cont, ptr %295, i32 0, i32 1
  %297 = load ptr, ptr %296, align 8
  %298 = load i32, ptr %5, align 4
  %299 = zext i32 %298 to i64
  %300 = getelementptr inbounds %struct.level_info, ptr %297, i64 %299
  %301 = getelementptr inbounds %struct.level_info, ptr %300, i32 0, i32 3
  store i32 0, ptr %301, align 4
  store i32 0, ptr %3, align 4
  br label %302

302:                                              ; preds = %277, %273
  %303 = load i32, ptr %3, align 4
  ret i32 %303
}