; Function Attrs: nounwind uwtable
define hidden noundef i32 @file_check_mem(ptr nocapture noundef %0, i32 noundef %1) local_unnamed_addr #2 {
  %3 = zext i32 %1 to i64
  %4 = getelementptr inbounds i8, ptr %0, i64 16
  %5 = load i64, ptr %4, align 8
  %.not = icmp ugt i64 %5, %3
  br i1 %.not, label %._crit_edge, label %6

._crit_edge:                                      ; preds = %2
  %.phi.trans.insert = getelementptr inbounds i8, ptr %0, i64 24
  %.pre = load ptr, ptr %.phi.trans.insert, align 8
  br label %23

6:                                                ; preds = %2
  %7 = add i32 %1, 20
  %8 = zext i32 %7 to i64
  store i64 %8, ptr %4, align 8
  %9 = shl nuw nsw i64 %8, 4
  %10 = getelementptr inbounds i8, ptr %0, i64 24
  %11 = load ptr, ptr %10, align 8
  %12 = icmp eq ptr %11, null
  br i1 %12, label %13, label %15

13:                                               ; preds = %6
  %14 = tail call noalias ptr @_emalloc(i64 noundef %9) #22
  br label %17

15:                                               ; preds = %6
  %16 = tail call ptr @_erealloc(ptr noundef nonnull %11, i64 noundef %9) #21
  br label %17

17:                                               ; preds = %13, %15
  %18 = phi ptr [ %16, %15 ], [ %14, %13 ]
  store ptr %18, ptr %10, align 8
  %19 = icmp eq ptr %18, null
  br i1 %19, label %20, label %23

20:                                               ; preds = %17
  %21 = tail call ptr @__errno_location() #18
  %22 = load i32, ptr %21, align 4
  tail call void (ptr, i32, ptr, ...) @file_error(ptr noundef nonnull %0, i32 noundef %22, ptr noundef nonnull @.str.8, i64 noundef %9)
  br label %31

23:                                               ; preds = %._crit_edge, %17
  %24 = phi ptr [ %.pre, %._crit_edge ], [ %18, %17 ]
  %25 = getelementptr inbounds i8, ptr %0, i64 24
  %26 = getelementptr inbounds %struct.level_info, ptr %24, i64 %3, i32 1
  store i32 0, ptr %26, align 4
  %27 = load ptr, ptr %25, align 8
  %28 = getelementptr inbounds %struct.level_info, ptr %27, i64 %3, i32 2
  store i32 0, ptr %28, align 4
  %29 = load ptr, ptr %25, align 8
  %30 = getelementptr inbounds %struct.level_info, ptr %29, i64 %3, i32 3
  store i32 0, ptr %30, align 4
  br label %31

31:                                               ; preds = %23, %20
  %.0 = phi i32 [ -1, %20 ], [ 0, %23 ]
  ret i32 %.0
}